target datalayout = "e-m:e-p270:32:32-p271:32:32-p272:64:64-i64:64-i128:128-f80:128-n8:16:32:64-S128"
target triple = "x86_64-pc-linux-gnu"

%struct.lv_color_t = type { i8, i8, i8 }

; Function Attrs: nounwind uwtable
define zeroext i16 @lv_color_to_u16(i24 %0) #0 {
  %2 = alloca %struct.lv_color_t, align 1
  store i24 %0, ptr %2, align 1
  %3 = getelementptr inbounds nuw %struct.lv_color_t, ptr %2, i32 0, i32 2
  %4 = load i8, ptr %3, align 1, !tbaa !11
  %5 = zext i8 %4 to i32
  %6 = and i32 %5, 248
  %7 = shl i32 %6, 8
  %8 = getelementptr inbounds nuw %struct.lv_color_t, ptr %2, i32 0, i32 1
  %9 = load i8, ptr %8, align 1, !tbaa !15
  %10 = zext i8 %9 to i32
  %11 = and i32 %10, 252
  %12 = shl i32 %11, 3
  %13 = add nsw i32 %7, %12
  %14 = getelementptr inbounds nuw %struct.lv_color_t, ptr %2, i32 0, i32 0
  %15 = load i8, ptr %14, align 1, !tbaa !17
  %16 = zext i8 %15 to i32
  %17 = and i32 %16, 248
  %18 = ashr i32 %17, 3
  %19 = add nsw i32 %13, %18
  %20 = trunc i32 %19 to i16
  ret i16 %20
}