; Function Attrs: mustprogress nofree norecurse nosync nounwind willreturn memory(none) uwtable
define zeroext i16 @lv_color_to_u16(i24 %0) local_unnamed_addr #1 {
  %2 = lshr i24 %0, 8
  %3 = and i24 %2, 63488
  %4 = lshr i24 %0, 5
  %5 = and i24 %4, 2016
  %6 = or disjoint i24 %3, %5
  %7 = trunc nuw i24 %6 to i16
  %8 = trunc i24 %0 to i16
  %9 = lshr i16 %8, 3
  %10 = and i16 %9, 31
  %11 = or disjoint i16 %10, %7
  ret i16 %11
}